target datalayout = "e-m:e-p270:32:32-p271:32:32-p272:64:64-i64:64-i128:128-f80:128-n8:16:32:64-S128"
target triple = "x86_64-unknown-linux-gnu"

@.str = private unnamed_addr constant [10 x i8] c"/chardevs\00", align 1

; Function Attrs: nounwind sspstrong uwtable
define internal void @g_autoptr_cleanup_generic_gfree(ptr noundef %p) #0 {
entry:
  %p.addr = alloca ptr, align 8
  %pp = alloca ptr, align 8
  store ptr %p, ptr %p.addr, align 8
  %0 = load ptr, ptr %p.addr, align 8
  store ptr %0, ptr %pp, align 8
  %1 = load ptr, ptr %pp, align 8
  %2 = load ptr, ptr %1, align 8
  call void @g_free(ptr noundef %2)
  ret void
}

; Function Attrs: nounwind sspstrong uwtable
define dso_local ptr @get_chardevs_root() #0 {
entry:
  %call = call ptr @object_get_root()
  %call1 = call ptr @container_get(ptr noundef %call, ptr noundef @.str)
  ret ptr %call1
}

; Function Attrs: nounwind sspstrong uwtable
define dso_local ptr @qemu_chardev_new(ptr noundef %id, ptr noundef %typename, ptr noundef %backend, ptr noundef %gcontext, ptr noundef %errp) #0 {
entry:
  %retval = alloca ptr, align 8
  %id.addr = alloca ptr, align 8
  %typename.addr = alloca ptr, align 8
  %backend.addr = alloca ptr, align 8
  %gcontext.addr = alloca ptr, align 8
  %errp.addr = alloca ptr, align 8
  %chr = alloca ptr, align 8
  %genid = alloca ptr, align 8
  %cleanup.dest.slot = alloca i32, align 4
  store ptr %id, ptr %id.addr, align 8
  store ptr %typename, ptr %typename.addr, align 8
  store ptr %backend, ptr %backend.addr, align 8
  store ptr %gcontext, ptr %gcontext.addr, align 8
  store ptr %errp, ptr %errp.addr, align 8
  store ptr null, ptr %genid, align 8
  %0 = load ptr, ptr %id.addr, align 8
  %tobool = icmp ne ptr %0, null
  br i1 %tobool, label %if.end, label %if.then

if.then:                                          ; preds = %entry
  %call = call ptr @id_generate(i32 noundef 2)
  store ptr %call, ptr %genid, align 8
  %1 = load ptr, ptr %genid, align 8
  store ptr %1, ptr %id.addr, align 8
  br label %if.end

if.end:                                           ; preds = %if.then, %entry
  %2 = load ptr, ptr %id.addr, align 8
  %3 = load ptr, ptr %typename.addr, align 8
  %4 = load ptr, ptr %backend.addr, align 8
  %5 = load ptr, ptr %gcontext.addr, align 8
  %6 = load ptr, ptr %errp.addr, align 8
  %call1 = call ptr @chardev_new(ptr noundef %2, ptr noundef %3, ptr noundef %4, ptr noundef %5, i1 noundef zeroext false, ptr noundef %6)
  store ptr %call1, ptr %chr, align 8
  %7 = load ptr, ptr %chr, align 8
  %tobool2 = icmp ne ptr %7, null
  br i1 %tobool2, label %if.end4, label %if.then3

if.then3:                                         ; preds = %if.end
  store ptr null, ptr %retval, align 8
  store i32 1, ptr %cleanup.dest.slot, align 4
  br label %cleanup

if.end4:                                          ; preds = %if.end
  %call5 = call ptr @get_chardevs_root()
  %8 = load ptr, ptr %id.addr, align 8
  %9 = load ptr, ptr %chr, align 8
  %10 = load ptr, ptr %errp.addr, align 8
  %call6 = call ptr @object_property_try_add_child(ptr noundef %call5, ptr noundef %8, ptr noundef %9, ptr noundef %10)
  %tobool7 = icmp ne ptr %call6, null
  br i1 %tobool7, label %if.end9, label %if.then8

if.then8:                                         ; preds = %if.end4
  %11 = load ptr, ptr %chr, align 8
  call void @object_unref(ptr noundef %11)
  store ptr null, ptr %retval, align 8
  store i32 1, ptr %cleanup.dest.slot, align 4
  br label %cleanup

if.end9:                                          ; preds = %if.end4
  %12 = load ptr, ptr %chr, align 8
  call void @object_unref(ptr noundef %12)
  %13 = load ptr, ptr %chr, align 8
  store ptr %13, ptr %retval, align 8
  store i32 1, ptr %cleanup.dest.slot, align 4
  br label %cleanup

cleanup:                                          ; preds = %if.end9, %if.then8, %if.then3
  call void @g_autoptr_cleanup_generic_gfree(ptr noundef %genid)
  %14 = load ptr, ptr %retval, align 8
  ret ptr %14
}