; Function Attrs: nounwind sspstrong uwtable
define dso_local ptr @qemu_chardev_new(ptr noundef %id, ptr noundef %typename, ptr noundef %backend, ptr noundef %gcontext, ptr noundef %errp) local_unnamed_addr #0 {
entry:
  %tobool.not = icmp eq ptr %id, null
  br i1 %tobool.not, label %if.then, label %if.end

if.then:                                          ; preds = %entry
  %call = tail call ptr @id_generate(i32 noundef 2) #13
  br label %if.end

if.end:                                           ; preds = %if.then, %entry
  %genid.0 = phi ptr [ %call, %if.then ], [ null, %entry ]
  %id.addr.0 = phi ptr [ %call, %if.then ], [ %id, %entry ]
  %call1 = tail call fastcc ptr @chardev_new(ptr noundef %id.addr.0, ptr noundef %typename, ptr noundef %backend, ptr noundef %gcontext, i1 noundef zeroext false, ptr noundef %errp)
  %tobool2.not = icmp eq ptr %call1, null
  br i1 %tobool2.not, label %cleanup, label %if.end4

if.end4:                                          ; preds = %if.end
  %call.i = tail call ptr @object_get_root() #13
  %call1.i = tail call ptr @container_get(ptr noundef %call.i, ptr noundef nonnull @.str) #13
  %call6 = tail call ptr @object_property_try_add_child(ptr noundef %call1.i, ptr noundef %id.addr.0, ptr noundef nonnull %call1, ptr noundef %errp) #13
  %tobool7.not = icmp eq ptr %call6, null
  tail call void @object_unref(ptr noundef nonnull %call1) #13
  %.call1 = select i1 %tobool7.not, ptr null, ptr %call1
  br label %cleanup

cleanup:                                          ; preds = %if.end4, %if.end
  %retval.0 = phi ptr [ null, %if.end ], [ %.call1, %if.end4 ]
  tail call void @g_free(ptr noundef %genid.0) #13
  ret ptr %retval.0
}